target datalayout = "e-m:e-p270:32:32-p271:32:32-p272:64:64-i64:64-i128:128-f80:128-n8:16:32:64-S128"
target triple = "x86_64-pc-linux-gnu"

%struct._zend_compiler_globals = type { %struct._zend_stack, ptr, ptr, i32, ptr, ptr, ptr, ptr, i8, i8, i8, i8, i8, %struct._zend_llist, ptr, i8, i8, i8, i8, ptr, i32, i32, %struct._zend_oparray_context, %struct._zend_file_context, ptr, %struct._zend_array, ptr, i64, i8, i8, i8, ptr, ptr, %struct._zend_stack, ptr, i32, ptr, ptr, i64, i64, ptr, ptr, ptr, ptr, i32, ptr, i32, %struct._zend_stack }
%struct._zend_llist = type { ptr, ptr, i64, i64, ptr, i8, ptr }
%struct._zend_oparray_context = type { ptr, ptr, i32, i32, i32, i32, i32, i32, i32, ptr, ptr, ptr, i32, i8 }
%struct._zend_file_context = type { %struct._zend_declarables, ptr, i8, i8, ptr, ptr, ptr, %struct._zend_array }
%struct._zend_declarables = type { i64 }
%struct._zend_array = type { %struct._zend_refcounted_h, %union.anon.6, i32, %union.anon.8, i32, i32, i32, i32, i64, ptr }
%struct._zend_refcounted_h = type { i32, %union.anon }
%union.anon = type { i32 }
%union.anon.6 = type { i32 }
%union.anon.8 = type { ptr }
%struct._zend_stack = type { i32, i32, i32, ptr }
%struct._zval_struct = type { %union._zend_value, %union.anon.0, %union.anon.3 }
%union._zend_value = type { i64 }
%union.anon.0 = type { i32 }
%union.anon.3 = type { i32 }
%struct._zend_op_array = type { i8, [3 x i8], i32, ptr, ptr, ptr, i32, i32, ptr, ptr, ptr, ptr, i32, ptr, i32, i32, i32, ptr, ptr, ptr, ptr, ptr, i32, i32, ptr, ptr, ptr, i32, i32, i32, i32, ptr, ptr, [6 x ptr] }
%struct._zend_generator = type { %struct._zend_object, ptr, ptr, %struct._zval_struct, %struct._zval_struct, %struct._zval_struct, ptr, i64, %struct._zval_struct, %struct._zend_generator_node, %struct._zend_execute_data, ptr, i8 }
%struct._zend_object = type { %struct._zend_refcounted_h, i32, i32, ptr, ptr, ptr, [1 x %struct._zval_struct] }
%struct._zend_generator_node = type { ptr, i32, %union.anon.4, %union.anon.5 }
%union.anon.4 = type { ptr }
%union.anon.5 = type { ptr }
%struct._zend_execute_data = type { ptr, ptr, ptr, ptr, %struct._zval_struct, ptr, ptr, ptr, ptr }
%struct._zend_refcounted = type { %struct._zend_refcounted_h }
%struct.anon.1 = type { i8, i8, %union.anon.2 }
%union.anon.2 = type { i16 }
%struct._zend_reference = type { %struct._zend_refcounted_h, %struct._zval_struct, %union.zend_property_info_source_list }
%union.zend_property_info_source_list = type { ptr }

@compiler_globals = external global %struct._zend_compiler_globals, align 8

; Function Attrs: alwaysinline nounwind uwtable
define internal void @gc_check_possible_root(ptr noundef %0) #2 {
  %2 = alloca ptr, align 8
  %3 = alloca ptr, align 8
  %4 = alloca i32, align 4
  store ptr %0, ptr %2, align 8, !tbaa !77
  %5 = load ptr, ptr %2, align 8, !tbaa !77
  %6 = getelementptr inbounds nuw %struct._zend_refcounted, ptr %5, i32 0, i32 0
  %7 = getelementptr inbounds nuw %struct._zend_refcounted_h, ptr %6, i32 0, i32 1
  %8 = load i32, ptr %7, align 4, !tbaa !26
  %9 = icmp eq i32 %8, 26
  %10 = xor i1 %9, true
  %11 = xor i1 %10, true
  %12 = zext i1 %11 to i32
  %13 = sext i32 %12 to i64
  %14 = call i64 @llvm.expect.i64(i64 %13, i64 1)
  %15 = icmp ne i64 %14, 0
  br i1 %15, label %16, label %34

16:                                               ; preds = %1
  call void @llvm.lifetime.start.p0(i64 8, ptr %3) #11
  %17 = load ptr, ptr %2, align 8, !tbaa !77
  %18 = getelementptr inbounds nuw %struct._zend_reference, ptr %17, i32 0, i32 1
  store ptr %18, ptr %3, align 8, !tbaa !36
  %19 = load ptr, ptr %3, align 8, !tbaa !36
  %20 = getelementptr inbounds nuw %struct._zval_struct, ptr %19, i32 0, i32 1
  %21 = getelementptr inbounds nuw %struct.anon.1, ptr %20, i32 0, i32 1
  %22 = load i8, ptr %21, align 1, !tbaa !26
  %23 = zext i8 %22 to i32
  %24 = and i32 %23, 2
  %25 = icmp ne i32 %24, 0
  br i1 %25, label %27, label %26

26:                                               ; preds = %16
  store i32 1, ptr %4, align 4
  br label %31

27:                                               ; preds = %16
  %28 = load ptr, ptr %3, align 8, !tbaa !36
  %29 = getelementptr inbounds nuw %struct._zval_struct, ptr %28, i32 0, i32 0
  %30 = load ptr, ptr %29, align 8, !tbaa !26
  store ptr %30, ptr %2, align 8, !tbaa !77
  store i32 0, ptr %4, align 4
  br label %31

31:                                               ; preds = %27, %26
  call void @llvm.lifetime.end.p0(i64 8, ptr %3) #11
  %32 = load i32, ptr %4, align 4
  switch i32 %32, label %50 [
    i32 0, label %33
    i32 1, label %49
  ]

33:                                               ; preds = %31
  br label %34

34:                                               ; preds = %33, %1
  %35 = load ptr, ptr %2, align 8, !tbaa !77
  %36 = getelementptr inbounds nuw %struct._zend_refcounted, ptr %35, i32 0, i32 0
  %37 = getelementptr inbounds nuw %struct._zend_refcounted_h, ptr %36, i32 0, i32 1
  %38 = load i32, ptr %37, align 4, !tbaa !26
  %39 = and i32 %38, -1008
  %40 = icmp eq i32 %39, 0
  %41 = xor i1 %40, true
  %42 = xor i1 %41, true
  %43 = zext i1 %42 to i32
  %44 = sext i32 %43 to i64
  %45 = call i64 @llvm.expect.i64(i64 %44, i64 0)
  %46 = icmp ne i64 %45, 0
  br i1 %46, label %47, label %49

47:                                               ; preds = %34
  %48 = load ptr, ptr %2, align 8, !tbaa !77
  call void @gc_possible_root(ptr noundef %48)
  br label %49

49:                                               ; preds = %31, %47, %34
  ret void

50:                                               ; preds = %31
  unreachable
}

; Function Attrs: alwaysinline nounwind uwtable
define internal void @i_zval_ptr_dtor(ptr noundef %0) #2 {
  %2 = alloca ptr, align 8
  %3 = alloca ptr, align 8
  store ptr %0, ptr %2, align 8, !tbaa !36
  %4 = load ptr, ptr %2, align 8, !tbaa !36
  %5 = getelementptr inbounds nuw %struct._zval_struct, ptr %4, i32 0, i32 1
  %6 = getelementptr inbounds nuw %struct.anon.1, ptr %5, i32 0, i32 1
  %7 = load i8, ptr %6, align 1, !tbaa !26
  %8 = zext i8 %7 to i32
  %9 = icmp ne i32 %8, 0
  br i1 %9, label %10, label %23

10:                                               ; preds = %1
  call void @llvm.lifetime.start.p0(i64 8, ptr %3) #11
  %11 = load ptr, ptr %2, align 8, !tbaa !36
  %12 = getelementptr inbounds nuw %struct._zval_struct, ptr %11, i32 0, i32 0
  %13 = load ptr, ptr %12, align 8, !tbaa !26
  store ptr %13, ptr %3, align 8, !tbaa !77
  %14 = load ptr, ptr %3, align 8, !tbaa !77
  %15 = getelementptr inbounds nuw %struct._zend_refcounted, ptr %14, i32 0, i32 0
  %16 = call i32 @zend_gc_delref(ptr noundef %15)
  %17 = icmp ne i32 %16, 0
  br i1 %17, label %20, label %18

18:                                               ; preds = %10
  %19 = load ptr, ptr %3, align 8, !tbaa !77
  call void @rc_dtor_func(ptr noundef %19)
  br label %22

20:                                               ; preds = %10
  %21 = load ptr, ptr %3, align 8, !tbaa !77
  call void @gc_check_possible_root(ptr noundef %21)
  br label %22

22:                                               ; preds = %20, %18
  call void @llvm.lifetime.end.p0(i64 8, ptr %3) #11
  br label %23

23:                                               ; preds = %22, %1
  ret void
}

; Function Attrs: alwaysinline nounwind uwtable
define internal void @zend_vm_stack_free_extra_args_ex(i32 noundef %0, ptr noundef %1) #2 {
  %3 = alloca i32, align 4
  %4 = alloca ptr, align 8
  %5 = alloca i32, align 4
  %6 = alloca ptr, align 8
  store i32 %0, ptr %3, align 4, !tbaa !32
  store ptr %1, ptr %4, align 8, !tbaa !9
  %7 = load i32, ptr %3, align 4, !tbaa !32
  %8 = and i32 %7, 524288
  %9 = icmp ne i32 %8, 0
  %10 = xor i1 %9, true
  %11 = xor i1 %10, true
  %12 = zext i1 %11 to i32
  %13 = sext i32 %12 to i64
  %14 = call i64 @llvm.expect.i64(i64 %13, i64 0)
  %15 = icmp ne i64 %14, 0
  br i1 %15, label %16, label %51

16:                                               ; preds = %2
  call void @llvm.lifetime.start.p0(i64 4, ptr %5) #11
  %17 = load ptr, ptr %4, align 8, !tbaa !9
  %18 = getelementptr inbounds nuw %struct._zend_execute_data, ptr %17, i32 0, i32 4
  %19 = getelementptr inbounds nuw %struct._zval_struct, ptr %18, i32 0, i32 2
  %20 = load i32, ptr %19, align 4, !tbaa !26
  %21 = load ptr, ptr %4, align 8, !tbaa !9
  %22 = getelementptr inbounds nuw %struct._zend_execute_data, ptr %21, i32 0, i32 3
  %23 = load ptr, ptr %22, align 8, !tbaa !27
  %24 = getelementptr inbounds nuw %struct._zend_op_array, ptr %23, i32 0, i32 6
  %25 = load i32, ptr %24, align 8, !tbaa !26
  %26 = sub i32 %20, %25
  store i32 %26, ptr %5, align 4, !tbaa !32
  call void @llvm.lifetime.start.p0(i64 8, ptr %6) #11
  %27 = load ptr, ptr %4, align 8, !tbaa !9
  %28 = load ptr, ptr %4, align 8, !tbaa !9
  %29 = getelementptr inbounds nuw %struct._zend_execute_data, ptr %28, i32 0, i32 3
  %30 = load ptr, ptr %29, align 8, !tbaa !27
  %31 = getelementptr inbounds nuw %struct._zend_op_array, ptr %30, i32 0, i32 15
  %32 = load i32, ptr %31, align 4, !tbaa !26
  %33 = load ptr, ptr %4, align 8, !tbaa !9
  %34 = getelementptr inbounds nuw %struct._zend_execute_data, ptr %33, i32 0, i32 3
  %35 = load ptr, ptr %34, align 8, !tbaa !27
  %36 = getelementptr inbounds nuw %struct._zend_op_array, ptr %35, i32 0, i32 12
  %37 = load i32, ptr %36, align 8, !tbaa !26
  %38 = add i32 %32, %37
  %39 = add nsw i32 5, %38
  %40 = sext i32 %39 to i64
  %41 = getelementptr inbounds %struct._zval_struct, ptr %27, i64 %40
  store ptr %41, ptr %6, align 8, !tbaa !36
  br label %42

42:                                               ; preds = %46, %16
  %43 = load ptr, ptr %6, align 8, !tbaa !36
  call void @i_zval_ptr_dtor(ptr noundef %43)
  %44 = load ptr, ptr %6, align 8, !tbaa !36
  %45 = getelementptr inbounds nuw %struct._zval_struct, ptr %44, i32 1
  store ptr %45, ptr %6, align 8, !tbaa !36
  br label %46

46:                                               ; preds = %42
  %47 = load i32, ptr %5, align 4, !tbaa !32
  %48 = add i32 %47, -1
  store i32 %48, ptr %5, align 4, !tbaa !32
  %49 = icmp ne i32 %48, 0
  br i1 %49, label %42, label %50

50:                                               ; preds = %46
  call void @llvm.lifetime.end.p0(i64 8, ptr %6) #11
  call void @llvm.lifetime.end.p0(i64 4, ptr %5) #11
  br label %51

51:                                               ; preds = %50, %2
  ret void
}

; Function Attrs: alwaysinline nounwind uwtable
define internal i32 @zend_gc_delref(ptr noundef %0) #2 {
  %2 = alloca ptr, align 8
  store ptr %0, ptr %2, align 8, !tbaa !113
  %3 = load ptr, ptr %2, align 8, !tbaa !113
  %4 = getelementptr inbounds nuw %struct._zend_refcounted_h, ptr %3, i32 0, i32 0
  %5 = load i32, ptr %4, align 4, !tbaa !115
  %6 = icmp ugt i32 %5, 0
  call void @llvm.assume(i1 %6)
  br label %7

7:                                                ; preds = %1
  br label %8

8:                                                ; preds = %7
  %9 = load ptr, ptr %2, align 8, !tbaa !113
  %10 = getelementptr inbounds nuw %struct._zend_refcounted_h, ptr %9, i32 0, i32 0
  %11 = load i32, ptr %10, align 4, !tbaa !115
  %12 = add i32 %11, -1
  store i32 %12, ptr %10, align 4, !tbaa !115
  ret i32 %12
}

; Function Attrs: alwaysinline nounwind uwtable
define internal void @zend_vm_stack_free_extra_args(ptr noundef %0) #2 {
  %2 = alloca ptr, align 8
  store ptr %0, ptr %2, align 8, !tbaa !9
  %3 = load ptr, ptr %2, align 8, !tbaa !9
  %4 = getelementptr inbounds nuw %struct._zend_execute_data, ptr %3, i32 0, i32 4
  %5 = getelementptr inbounds nuw %struct._zval_struct, ptr %4, i32 0, i32 1
  %6 = load i32, ptr %5, align 8, !tbaa !26
  %7 = load ptr, ptr %2, align 8, !tbaa !9
  call void @zend_vm_stack_free_extra_args_ex(i32 noundef %6, ptr noundef %7)
  ret void
}

; Function Attrs: alwaysinline nounwind uwtable
define internal void @zend_object_release(ptr noundef %0) #2 {
  %2 = alloca ptr, align 8
  store ptr %0, ptr %2, align 8, !tbaa !59
  %3 = load ptr, ptr %2, align 8, !tbaa !59
  %4 = getelementptr inbounds nuw %struct._zend_object, ptr %3, i32 0, i32 0
  %5 = call i32 @zend_gc_delref(ptr noundef %4)
  %6 = icmp eq i32 %5, 0
  br i1 %6, label %7, label %9

7:                                                ; preds = %1
  %8 = load ptr, ptr %2, align 8, !tbaa !59
  call void @zend_objects_store_del(ptr noundef %8)
  br label %25

9:                                                ; preds = %1
  %10 = load ptr, ptr %2, align 8, !tbaa !59
  %11 = getelementptr inbounds nuw %struct._zend_refcounted, ptr %10, i32 0, i32 0
  %12 = getelementptr inbounds nuw %struct._zend_refcounted_h, ptr %11, i32 0, i32 1
  %13 = load i32, ptr %12, align 4, !tbaa !26
  %14 = and i32 %13, -1008
  %15 = icmp eq i32 %14, 0
  %16 = xor i1 %15, true
  %17 = xor i1 %16, true
  %18 = zext i1 %17 to i32
  %19 = sext i32 %18 to i64
  %20 = call i64 @llvm.expect.i64(i64 %19, i64 0)
  %21 = icmp ne i64 %20, 0
  br i1 %21, label %22, label %24

22:                                               ; preds = %9
  %23 = load ptr, ptr %2, align 8, !tbaa !59
  call void @gc_possible_root(ptr noundef %23)
  br label %24

24:                                               ; preds = %22, %9
  br label %25

25:                                               ; preds = %24, %7
  ret void
}

; Function Attrs: nounwind uwtable
define dso_local void @zend_generator_close(ptr noundef %0, i1 noundef zeroext %1) #0 {
  %3 = alloca ptr, align 8
  %4 = alloca i8, align 1
  %5 = alloca ptr, align 8
  %6 = alloca i32, align 4
  store ptr %0, ptr %3, align 8, !tbaa !4
  %7 = zext i1 %1 to i8
  store i8 %7, ptr %4, align 1, !tbaa !37
  %8 = load ptr, ptr %3, align 8, !tbaa !4
  %9 = getelementptr inbounds nuw %struct._zend_generator, ptr %8, i32 0, i32 1
  %10 = load ptr, ptr %9, align 8, !tbaa !30
  %11 = icmp ne ptr %10, null
  %12 = xor i1 %11, true
  %13 = xor i1 %12, true
  %14 = zext i1 %13 to i32
  %15 = sext i32 %14 to i64
  %16 = call i64 @llvm.expect.i64(i64 %15, i64 1)
  %17 = icmp ne i64 %16, 0
  br i1 %17, label %18, label %89

18:                                               ; preds = %2
  call void @llvm.lifetime.start.p0(i64 8, ptr %5) #11
  %19 = load ptr, ptr %3, align 8, !tbaa !4
  %20 = getelementptr inbounds nuw %struct._zend_generator, ptr %19, i32 0, i32 1
  %21 = load ptr, ptr %20, align 8, !tbaa !30
  store ptr %21, ptr %5, align 8, !tbaa !9
  %22 = load ptr, ptr %3, align 8, !tbaa !4
  %23 = getelementptr inbounds nuw %struct._zend_generator, ptr %22, i32 0, i32 1
  store ptr null, ptr %23, align 8, !tbaa !30
  %24 = load ptr, ptr %5, align 8, !tbaa !9
  %25 = getelementptr inbounds nuw %struct._zend_execute_data, ptr %24, i32 0, i32 4
  %26 = getelementptr inbounds nuw %struct._zval_struct, ptr %25, i32 0, i32 1
  %27 = load i32, ptr %26, align 8, !tbaa !26
  %28 = and i32 %27, 1048576
  %29 = icmp ne i32 %28, 0
  br i1 %29, label %30, label %34

30:                                               ; preds = %18
  %31 = load ptr, ptr %5, align 8, !tbaa !9
  %32 = getelementptr inbounds nuw %struct._zend_execute_data, ptr %31, i32 0, i32 6
  %33 = load ptr, ptr %32, align 8, !tbaa !39
  call void @zend_clean_and_cache_symbol_table(ptr noundef %33)
  br label %34

34:                                               ; preds = %30, %18
  %35 = load ptr, ptr %5, align 8, !tbaa !9
  call void @zend_free_compiled_variables(ptr noundef %35)
  %36 = load ptr, ptr %5, align 8, !tbaa !9
  %37 = getelementptr inbounds nuw %struct._zend_execute_data, ptr %36, i32 0, i32 4
  %38 = getelementptr inbounds nuw %struct._zval_struct, ptr %37, i32 0, i32 1
  %39 = load i32, ptr %38, align 8, !tbaa !26
  %40 = and i32 %39, 134217728
  %41 = icmp ne i32 %40, 0
  br i1 %41, label %42, label %46

42:                                               ; preds = %34
  %43 = load ptr, ptr %5, align 8, !tbaa !9
  %44 = getelementptr inbounds nuw %struct._zend_execute_data, ptr %43, i32 0, i32 8
  %45 = load ptr, ptr %44, align 8, !tbaa !28
  call void @zend_free_extra_named_params(ptr noundef %45)
  br label %46

46:                                               ; preds = %42, %34
  %47 = load ptr, ptr %5, align 8, !tbaa !9
  %48 = getelementptr inbounds nuw %struct._zend_execute_data, ptr %47, i32 0, i32 4
  %49 = getelementptr inbounds nuw %struct._zval_struct, ptr %48, i32 0, i32 1
  %50 = load i32, ptr %49, align 8, !tbaa !26
  %51 = and i32 %50, 2097152
  %52 = icmp ne i32 %51, 0
  br i1 %52, label %53, label %58

53:                                               ; preds = %46
  %54 = load ptr, ptr %5, align 8, !tbaa !9
  %55 = getelementptr inbounds nuw %struct._zend_execute_data, ptr %54, i32 0, i32 4
  %56 = getelementptr inbounds nuw %struct._zval_struct, ptr %55, i32 0, i32 0
  %57 = load ptr, ptr %56, align 8, !tbaa !26
  call void @zend_object_release(ptr noundef %57)
  br label %58

58:                                               ; preds = %53, %46
  %59 = load i8, ptr getelementptr inbounds nuw (%struct._zend_compiler_globals, ptr @compiler_globals, i32 0, i32 11), align 1, !tbaa !40, !range !57, !noundef !58
  %60 = trunc i8 %59 to i1
  %61 = xor i1 %60, true
  %62 = xor i1 %61, true
  %63 = zext i1 %62 to i32
  %64 = sext i32 %63 to i64
  %65 = call i64 @llvm.expect.i64(i64 %64, i64 0)
  %66 = icmp ne i64 %65, 0
  br i1 %66, label %67, label %70

67:                                               ; preds = %58
  %68 = load ptr, ptr %3, align 8, !tbaa !4
  %69 = getelementptr inbounds nuw %struct._zend_generator, ptr %68, i32 0, i32 1
  store ptr null, ptr %69, align 8, !tbaa !30
  store i32 1, ptr %6, align 4
  br label %86

70:                                               ; preds = %58
  %71 = load ptr, ptr %5, align 8, !tbaa !9
  call void @zend_vm_stack_free_extra_args(ptr noundef %71)
  %72 = load i8, ptr %4, align 1, !tbaa !37, !range !57, !noundef !58
  %73 = trunc i8 %72 to i1
  %74 = xor i1 %73, true
  %75 = xor i1 %74, true
  %76 = xor i1 %75, true
  %77 = zext i1 %76 to i32
  %78 = sext i32 %77 to i64
  %79 = call i64 @llvm.expect.i64(i64 %78, i64 0)
  %80 = icmp ne i64 %79, 0
  br i1 %80, label %81, label %84

81:                                               ; preds = %70
  %82 = load ptr, ptr %3, align 8, !tbaa !4
  %83 = load ptr, ptr %5, align 8, !tbaa !9
  call void @zend_generator_cleanup_unfinished_execution(ptr noundef %82, ptr noundef %83, i32 noundef 0)
  br label %84

84:                                               ; preds = %81, %70
  %85 = load ptr, ptr %5, align 8, !tbaa !9
  call void @_efree(ptr noundef %85)
  store i32 0, ptr %6, align 4
  br label %86

86:                                               ; preds = %84, %67
  call void @llvm.lifetime.end.p0(i64 8, ptr %5) #11
  %87 = load i32, ptr %6, align 4
  switch i32 %87, label %90 [
    i32 0, label %88
    i32 1, label %89
  ]

88:                                               ; preds = %86
  br label %89

89:                                               ; preds = %86, %88, %2
  ret void

90:                                               ; preds = %86
  unreachable
}