; Function Attrs: nounwind uwtable
define dso_local void @zend_generator_close(ptr noundef captures(none) %0, i1 noundef zeroext %1) local_unnamed_addr #0 {
  %3 = getelementptr inbounds nuw i8, ptr %0, i64 56
  %4 = load ptr, ptr %3, align 8, !tbaa !56
  %.not = icmp eq ptr %4, null
  br i1 %.not, label %85, label %5, !prof !26

5:                                                ; preds = %2
  store ptr null, ptr %3, align 8, !tbaa !56
  %6 = getelementptr inbounds nuw i8, ptr %4, i64 32
  %7 = getelementptr inbounds nuw i8, ptr %4, i64 40
  %8 = load i32, ptr %7, align 8, !tbaa !24
  %9 = and i32 %8, 1048576
  %.not15 = icmp eq i32 %9, 0
  br i1 %.not15, label %13, label %10

10:                                               ; preds = %5
  %11 = getelementptr inbounds nuw i8, ptr %4, i64 56
  %12 = load ptr, ptr %11, align 8, !tbaa !64
  tail call void @zend_clean_and_cache_symbol_table(ptr noundef %12) #11
  br label %13

13:                                               ; preds = %10, %5
  tail call void @zend_free_compiled_variables(ptr noundef nonnull %4) #11
  %14 = load i32, ptr %7, align 8, !tbaa !24
  %15 = and i32 %14, 134217728
  %.not16 = icmp eq i32 %15, 0
  br i1 %.not16, label %19, label %16

16:                                               ; preds = %13
  %17 = getelementptr inbounds nuw i8, ptr %4, i64 72
  %18 = load ptr, ptr %17, align 8, !tbaa !54
  tail call void @zend_free_extra_named_params(ptr noundef %18) #11
  %.pre = load i32, ptr %7, align 8, !tbaa !24
  br label %19

19:                                               ; preds = %16, %13
  %20 = phi i32 [ %.pre, %16 ], [ %14, %13 ]
  %21 = and i32 %20, 2097152
  %.not17 = icmp eq i32 %21, 0
  br i1 %.not17, label %zend_object_release.exit, label %22

22:                                               ; preds = %19
  %23 = load ptr, ptr %6, align 8, !tbaa !24
  %24 = load i32, ptr %23, align 4, !tbaa !65
  %25 = icmp ne i32 %24, 0
  tail call void @llvm.assume(i1 %25)
  %26 = add i32 %24, -1
  store i32 %26, ptr %23, align 4, !tbaa !65
  %27 = icmp eq i32 %26, 0
  br i1 %27, label %28, label %29

28:                                               ; preds = %22
  tail call void @zend_objects_store_del(ptr noundef nonnull %23) #11
  br label %zend_object_release.exit

29:                                               ; preds = %22
  %30 = getelementptr inbounds nuw i8, ptr %23, i64 4
  %31 = load i32, ptr %30, align 4, !tbaa !24
  %32 = and i32 %31, -1008
  %33 = icmp eq i32 %32, 0
  br i1 %33, label %34, label %zend_object_release.exit, !prof !26

34:                                               ; preds = %29
  tail call void @gc_possible_root(ptr noundef nonnull %23) #11
  br label %zend_object_release.exit

zend_object_release.exit:                         ; preds = %34, %29, %28, %19
  %35 = load i8, ptr getelementptr inbounds nuw (i8, ptr @compiler_globals, i64 83), align 1, !tbaa !66, !range !80, !noundef !81
  %36 = trunc nuw i8 %35 to i1
  br i1 %36, label %37, label %38, !prof !26

37:                                               ; preds = %zend_object_release.exit
  store ptr null, ptr %3, align 8, !tbaa !56
  br label %85

38:                                               ; preds = %zend_object_release.exit
  %39 = load i32, ptr %7, align 8, !tbaa !24
  %40 = and i32 %39, 524288
  %.not.i = icmp eq i32 %40, 0
  br i1 %.not.i, label %zend_vm_stack_free_extra_args_ex.exit, label %41, !prof !58

41:                                               ; preds = %38
  %42 = getelementptr inbounds nuw i8, ptr %4, i64 44
  %43 = load i32, ptr %42, align 4, !tbaa !24
  %44 = getelementptr inbounds nuw i8, ptr %4, i64 24
  %45 = load ptr, ptr %44, align 8, !tbaa !25
  %46 = getelementptr inbounds nuw i8, ptr %45, i64 32
  %47 = load i32, ptr %46, align 8, !tbaa !24
  %48 = sub i32 %43, %47
  %49 = getelementptr inbounds nuw i8, ptr %45, i64 92
  %50 = load i32, ptr %49, align 4, !tbaa !24
  %51 = getelementptr inbounds nuw i8, ptr %45, i64 72
  %52 = load i32, ptr %51, align 8, !tbaa !24
  %53 = add i32 %52, %50
  %54 = sext i32 %53 to i64
  %55 = getelementptr %struct._zval_struct, ptr %4, i64 %54
  %56 = getelementptr i8, ptr %55, i64 80
  br label %57

57:                                               ; preds = %i_zval_ptr_dtor.exit, %41
  %.08.i = phi i32 [ %48, %41 ], [ %82, %i_zval_ptr_dtor.exit ]
  %.0.i = phi ptr [ %56, %41 ], [ %81, %i_zval_ptr_dtor.exit ]
  %58 = getelementptr inbounds nuw i8, ptr %.0.i, i64 9
  %59 = load i8, ptr %58, align 1, !tbaa !24
  %.not.i18 = icmp eq i8 %59, 0
  br i1 %.not.i18, label %i_zval_ptr_dtor.exit, label %60

60:                                               ; preds = %57
  %61 = load ptr, ptr %.0.i, align 8, !tbaa !24
  %62 = load i32, ptr %61, align 4, !tbaa !65
  %63 = icmp ne i32 %62, 0
  tail call void @llvm.assume(i1 %63)
  %64 = add i32 %62, -1
  store i32 %64, ptr %61, align 4, !tbaa !65
  %.not5.i = icmp eq i32 %64, 0
  br i1 %.not5.i, label %65, label %66

65:                                               ; preds = %60
  tail call void @rc_dtor_func(ptr noundef nonnull %61) #11
  br label %i_zval_ptr_dtor.exit

66:                                               ; preds = %60
  %67 = getelementptr inbounds nuw i8, ptr %61, i64 4
  %68 = load i32, ptr %67, align 4, !tbaa !24
  %69 = icmp eq i32 %68, 26
  br i1 %69, label %70, label %76, !prof !58

70:                                               ; preds = %66
  %71 = getelementptr inbounds nuw i8, ptr %61, i64 17
  %72 = load i8, ptr %71, align 1, !tbaa !24
  %73 = and i8 %72, 2
  %.not.i19 = icmp eq i8 %73, 0
  br i1 %.not.i19, label %i_zval_ptr_dtor.exit, label %.thread

.thread:                                          ; preds = %70
  %74 = getelementptr inbounds nuw i8, ptr %61, i64 8
  %75 = load ptr, ptr %74, align 8, !tbaa !24
  %.phi.trans.insert = getelementptr inbounds nuw i8, ptr %75, i64 4
  %.pre22 = load i32, ptr %.phi.trans.insert, align 4, !tbaa !24
  br label %76

76:                                               ; preds = %.thread, %66
  %77 = phi i32 [ %68, %66 ], [ %.pre22, %.thread ]
  %.06.i = phi ptr [ %61, %66 ], [ %75, %.thread ]
  %78 = and i32 %77, -1008
  %79 = icmp eq i32 %78, 0
  br i1 %79, label %80, label %i_zval_ptr_dtor.exit, !prof !26

80:                                               ; preds = %76
  tail call void @gc_possible_root(ptr noundef nonnull %.06.i) #11
  br label %i_zval_ptr_dtor.exit

i_zval_ptr_dtor.exit:                             ; preds = %80, %76, %70, %57, %65
  %81 = getelementptr inbounds nuw i8, ptr %.0.i, i64 16
  %82 = add i32 %.08.i, -1
  %.not9.i = icmp eq i32 %82, 0
  br i1 %.not9.i, label %zend_vm_stack_free_extra_args_ex.exit, label %57

zend_vm_stack_free_extra_args_ex.exit:            ; preds = %i_zval_ptr_dtor.exit, %38
  br i1 %1, label %84, label %83, !prof !58

83:                                               ; preds = %zend_vm_stack_free_extra_args_ex.exit
  tail call fastcc void @zend_generator_cleanup_unfinished_execution(ptr noundef %0, ptr noundef nonnull %4, i32 noundef 0)
  br label %84

84:                                               ; preds = %83, %zend_vm_stack_free_extra_args_ex.exit
  tail call void @_efree(ptr noundef nonnull %4) #11
  br label %85

85:                                               ; preds = %37, %84, %2
  ret void
}